; Function Attrs: nounwind uwtable
define ptr @PGTYPESnumeric_to_asc(ptr noundef readonly captures(none) %0, i32 noundef %1) local_unnamed_addr #0 {
  %3 = tail call ptr @pgtypes_alloc(i64 noundef 40) #14
  %4 = icmp eq ptr %3, null
  br i1 %4, label %PGTYPESnumeric_new.exit.thread, label %5

5:                                                ; preds = %2
  %6 = getelementptr inbounds nuw i8, ptr %3, i64 24
  %7 = load ptr, ptr %6, align 8
  tail call void @free(ptr noundef %7) #14
  %8 = tail call ptr @pgtypes_alloc(i64 noundef 1) #14
  store ptr %8, ptr %6, align 8
  %9 = icmp eq ptr %8, null
  br i1 %9, label %PGTYPESnumeric_new.exit.thread.sink.split, label %10

10:                                               ; preds = %5
  store i8 0, ptr %8, align 1
  %11 = load ptr, ptr %6, align 8
  %12 = getelementptr inbounds nuw i8, ptr %11, i64 1
  %13 = getelementptr inbounds nuw i8, ptr %3, i64 32
  store ptr %12, ptr %13, align 8
  store i32 0, ptr %3, align 8
  tail call void @free(ptr noundef %11) #14
  store i32 0, ptr %3, align 8
  %14 = getelementptr inbounds nuw i8, ptr %3, i64 4
  store i32 0, ptr %14, align 4
  %15 = getelementptr inbounds nuw i8, ptr %3, i64 16
  store i32 0, ptr %15, align 8
  tail call void @llvm.memset.p0.i64(ptr noundef nonnull align 8 dereferenceable(16) %6, i8 0, i64 16, i1 false)
  %16 = getelementptr inbounds nuw i8, ptr %0, i64 4
  %17 = load i32, ptr %16, align 4
  store i32 %17, ptr %14, align 4
  %18 = getelementptr inbounds nuw i8, ptr %0, i64 8
  %19 = load i32, ptr %18, align 8
  %20 = getelementptr inbounds nuw i8, ptr %3, i64 8
  store i32 %19, ptr %20, align 8
  %21 = getelementptr inbounds nuw i8, ptr %0, i64 12
  %22 = load i32, ptr %21, align 4
  %23 = getelementptr inbounds nuw i8, ptr %3, i64 12
  store i32 %22, ptr %23, align 4
  %24 = getelementptr inbounds nuw i8, ptr %0, i64 16
  %25 = load i32, ptr %24, align 8
  store i32 %25, ptr %15, align 8
  %26 = load i32, ptr %0, align 8
  %27 = add i32 %26, 1
  %28 = sext i32 %27 to i64
  %29 = tail call ptr @pgtypes_alloc(i64 noundef %28) #14
  store ptr %29, ptr %6, align 8
  %30 = icmp eq ptr %29, null
  br i1 %30, label %PGTYPESnumeric_new.exit.thread.sink.split, label %alloc_var.exit.i13

alloc_var.exit.i13:                               ; preds = %10
  store i8 0, ptr %29, align 1
  %31 = load ptr, ptr %6, align 8
  %32 = getelementptr inbounds nuw i8, ptr %31, i64 1
  store ptr %32, ptr %13, align 8
  store i32 %26, ptr %3, align 8
  %33 = load i32, ptr %0, align 8
  %34 = icmp sgt i32 %33, 0
  br i1 %34, label %.lr.ph.i, label %.loopexit

.lr.ph.i:                                         ; preds = %alloc_var.exit.i13
  %35 = getelementptr inbounds nuw i8, ptr %0, i64 32
  br label %36

36:                                               ; preds = %36, %.lr.ph.i
  %indvars.iv.i = phi i64 [ 0, %.lr.ph.i ], [ %indvars.iv.next.i, %36 ]
  %37 = load ptr, ptr %35, align 8
  %38 = getelementptr inbounds nuw i8, ptr %37, i64 %indvars.iv.i
  %39 = load i8, ptr %38, align 1
  %40 = load ptr, ptr %13, align 8
  %41 = getelementptr inbounds nuw i8, ptr %40, i64 %indvars.iv.i
  store i8 %39, ptr %41, align 1
  %indvars.iv.next.i = add nuw nsw i64 %indvars.iv.i, 1
  %42 = load i32, ptr %0, align 8
  %43 = sext i32 %42 to i64
  %44 = icmp slt i64 %indvars.iv.next.i, %43
  br i1 %44, label %36, label %.loopexit, !llvm.loop !9

.loopexit:                                        ; preds = %36, %alloc_var.exit.i13
  %45 = icmp slt i32 %1, 0
  br i1 %45, label %46, label %48

46:                                               ; preds = %.loopexit
  %47 = load i32, ptr %21, align 4
  br label %48

48:                                               ; preds = %46, %.loopexit
  %.010 = phi i32 [ %47, %46 ], [ %1, %.loopexit ]
  %49 = tail call fastcc ptr @get_str_from_var(ptr noundef %3, i32 noundef %.010)
  %50 = load ptr, ptr %6, align 8
  tail call void @free(ptr noundef %50) #14
  br label %PGTYPESnumeric_new.exit.thread.sink.split

PGTYPESnumeric_new.exit.thread.sink.split:        ; preds = %10, %5, %48
  %.0.ph = phi ptr [ %49, %48 ], [ null, %5 ], [ null, %10 ]
  tail call void @free(ptr noundef nonnull %3) #14
  br label %PGTYPESnumeric_new.exit.thread

PGTYPESnumeric_new.exit.thread:                   ; preds = %PGTYPESnumeric_new.exit.thread.sink.split, %2
  %.0 = phi ptr [ null, %2 ], [ %.0.ph, %PGTYPESnumeric_new.exit.thread.sink.split ]
  ret ptr %.0
}